; Function Attrs: nounwind uwtable
define range(i32 0, 2) i32 @ossl_qrl_enc_level_set_key_update(ptr noundef %0, i32 noundef %1) local_unnamed_addr #2 {
  %3 = alloca [64 x i8], align 16
  %4 = icmp ult i32 %1, 4
  br i1 %4, label %ossl_qrl_enc_level_set_get.exit, label %ossl_qrl_enc_level_set_get.exit.thread, !prof !3

ossl_qrl_enc_level_set_get.exit.thread:           ; preds = %2
  call void @llvm.lifetime.start.p0(i64 64, ptr nonnull %3) #6
  br label %9

ossl_qrl_enc_level_set_get.exit:                  ; preds = %2
  %5 = zext nneg i32 %1 to i64
  %6 = getelementptr inbounds nuw [4 x %struct.ossl_qrl_enc_level_st], ptr %0, i64 0, i64 %5
  call void @llvm.lifetime.start.p0(i64 64, ptr nonnull %3) #6
  %7 = icmp ne ptr %0, null
  %8 = icmp eq i32 %1, 3
  %or.cond = and i1 %7, %8
  br i1 %or.cond, label %10, label %9, !prof !30

9:                                                ; preds = %ossl_qrl_enc_level_set_get.exit.thread, %ossl_qrl_enc_level_set_get.exit
  tail call void @ERR_new() #6
  tail call void @ERR_set_debug(ptr noundef nonnull @.str, i32 noundef 353, ptr noundef nonnull @__func__.ossl_qrl_enc_level_set_key_update) #6
  tail call void (i32, i32, ptr, ...) @ERR_set_error(i32 noundef 20, i32 noundef 524550, ptr noundef null) #6
  br label %53

10:                                               ; preds = %ossl_qrl_enc_level_set_get.exit
  %11 = getelementptr inbounds nuw i8, ptr %6, i64 104
  %12 = load i8, ptr %11, align 8, !tbaa !4
  %.not = icmp eq i8 %12, 1
  br i1 %.not, label %14, label %13

13:                                               ; preds = %10
  tail call void @ERR_new() #6
  tail call void @ERR_set_debug(ptr noundef nonnull @.str, i32 noundef 358, ptr noundef nonnull @__func__.ossl_qrl_enc_level_set_key_update) #6
  tail call void (i32, i32, ptr, ...) @ERR_set_error(i32 noundef 20, i32 noundef 786691, ptr noundef null) #6
  br label %53

14:                                               ; preds = %10
  %15 = getelementptr inbounds nuw i8, ptr %6, i64 105
  %16 = load i8, ptr %15, align 1, !tbaa !25
  %.not26 = icmp eq i8 %16, 0
  br i1 %.not26, label %17, label %21

17:                                               ; preds = %14
  %18 = getelementptr inbounds nuw i8, ptr %6, i64 80
  %19 = load i64, ptr %18, align 8, !tbaa !18
  %20 = add i64 %19, 1
  store i64 %20, ptr %18, align 8, !tbaa !18
  store i8 2, ptr %11, align 8, !tbaa !4
  br label %53

21:                                               ; preds = %14
  %22 = getelementptr inbounds nuw i8, ptr %6, i64 96
  %23 = load i32, ptr %22, align 8, !tbaa !22
  %24 = tail call i32 @ossl_qrl_get_suite_secret_len(i32 noundef %23) #6
  %25 = zext i32 %24 to i64
  %26 = getelementptr inbounds nuw i8, ptr %6, i64 64
  %27 = load ptr, ptr %26, align 8, !tbaa !19
  %28 = getelementptr inbounds nuw i8, ptr %6, i64 72
  %29 = load ptr, ptr %28, align 8, !tbaa !20
  %30 = getelementptr inbounds nuw i8, ptr %6, i64 40
  %31 = load ptr, ptr %30, align 8, !tbaa !21
  %32 = getelementptr inbounds nuw i8, ptr %6, i64 138
  %33 = call i32 @tls13_hkdf_expand_ex(ptr noundef %27, ptr noundef %29, ptr noundef %31, ptr noundef nonnull %32, ptr noundef nonnull @quic_v1_ku_label, i64 noundef 7, ptr noundef null, i64 noundef 0, ptr noundef nonnull %3, i64 noundef %25, i32 noundef 1) #6
  %.not27 = icmp eq i32 %33, 0
  br i1 %.not27, label %53, label %34

34:                                               ; preds = %21
  %35 = getelementptr inbounds nuw i8, ptr %0, i64 728
  %36 = load i8, ptr %35, align 8, !tbaa !4
  switch i8 %36, label %el_teardown_keyslot.exit [
    i8 1, label %ossl_qrl_enc_level_set_has_keyslot.exit.i
    i8 2, label %ossl_qrl_enc_level_set_has_keyslot.exit.i
    i8 3, label %37
  ]

37:                                               ; preds = %34
  %38 = getelementptr inbounds nuw i8, ptr %0, i64 704
  %39 = load i64, ptr %38, align 8, !tbaa !18
  %40 = and i64 %39, 1
  %41 = icmp eq i64 %40, 0
  br i1 %41, label %ossl_qrl_enc_level_set_has_keyslot.exit.i, label %el_teardown_keyslot.exit

ossl_qrl_enc_level_set_has_keyslot.exit.i:        ; preds = %34, %34, %37
  %42 = getelementptr inbounds nuw i8, ptr %0, i64 672
  %43 = load ptr, ptr %42, align 8, !tbaa !26
  %.not13.i = icmp eq ptr %43, null
  br i1 %.not13.i, label %45, label %44

44:                                               ; preds = %ossl_qrl_enc_level_set_has_keyslot.exit.i
  call void @EVP_CIPHER_CTX_free(ptr noundef nonnull %43) #6
  store ptr null, ptr %42, align 8, !tbaa !26
  br label %45

45:                                               ; preds = %44, %ossl_qrl_enc_level_set_has_keyslot.exit.i
  %46 = getelementptr inbounds nuw i8, ptr %0, i64 730
  call void @OPENSSL_cleanse(ptr noundef nonnull %46, i64 noundef 16) #6
  br label %el_teardown_keyslot.exit

el_teardown_keyslot.exit:                         ; preds = %34, %37, %45
  %47 = call fastcc i32 @el_setup_keyslot(ptr noundef nonnull %0, i32 noundef 3, i64 noundef 0, ptr noundef nonnull %32, i64 noundef %25)
  %.not28 = icmp eq i32 %47, 0
  br i1 %.not28, label %53, label %48

48:                                               ; preds = %el_teardown_keyslot.exit
  %49 = getelementptr inbounds nuw i8, ptr %6, i64 80
  %50 = load i64, ptr %49, align 8, !tbaa !18
  %51 = add i64 %50, 1
  store i64 %51, ptr %49, align 8, !tbaa !18
  %52 = getelementptr inbounds nuw i8, ptr %6, i64 88
  store i64 0, ptr %52, align 8, !tbaa !24
  call void @llvm.memcpy.p0.p0.i64(ptr nonnull align 2 %32, ptr nonnull align 16 %3, i64 %25, i1 false)
  br label %53

53:                                               ; preds = %el_teardown_keyslot.exit, %21, %48, %17, %13, %9
  %.0 = phi i32 [ 0, %9 ], [ 0, %13 ], [ 1, %48 ], [ 1, %17 ], [ 0, %21 ], [ 0, %el_teardown_keyslot.exit ]
  call void @llvm.lifetime.end.p0(i64 64, ptr nonnull %3) #6
  ret i32 %.0
}